; Function Attrs: nounwind uwtable
define hidden void @uv__run_check(ptr noundef %loop) local_unnamed_addr #2 {
entry:
  %queue = alloca %struct.uv__queue, align 8
  %check_handles = getelementptr inbounds nuw i8, ptr %loop, i64 400
  %0 = load ptr, ptr %check_handles, align 8
  %cmp.i.not.i = icmp eq ptr %check_handles, %0
  br i1 %cmp.i.not.i, label %while.end, label %uv__queue_move.exit

uv__queue_move.exit:                              ; preds = %entry
  %prev.i4.i = getelementptr inbounds nuw i8, ptr %loop, i64 408
  %1 = load ptr, ptr %prev.i4.i, align 8
  %prev1.i.i = getelementptr inbounds nuw i8, ptr %queue, i64 8
  store ptr %1, ptr %prev1.i.i, align 8
  store ptr %queue, ptr %1, align 8
  store ptr %0, ptr %queue, align 8
  %prev4.i.i = getelementptr inbounds nuw i8, ptr %0, i64 8
  %2 = load ptr, ptr %prev4.i.i, align 8
  store ptr %2, ptr %prev.i4.i, align 8
  store ptr %check_handles, ptr %2, align 8
  store ptr %queue, ptr %prev4.i.i, align 8
  %.pre = load ptr, ptr %queue, align 8
  %cmp.i.not6 = icmp eq ptr %queue, %.pre
  br i1 %cmp.i.not6, label %while.end, label %while.body.lr.ph

while.body.lr.ph:                                 ; preds = %uv__queue_move.exit
  %prev.i5 = getelementptr inbounds nuw i8, ptr %loop, i64 408
  br label %while.body

while.body:                                       ; preds = %while.body.lr.ph, %while.body
  %3 = phi ptr [ %.pre, %while.body.lr.ph ], [ %9, %while.body ]
  %add.ptr = getelementptr inbounds i8, ptr %3, i64 -104
  %4 = load ptr, ptr %3, align 8
  %prev.i = getelementptr inbounds nuw i8, ptr %3, i64 8
  %5 = load ptr, ptr %prev.i, align 8
  store ptr %4, ptr %5, align 8
  %6 = load ptr, ptr %prev.i, align 8
  %prev4.i = getelementptr inbounds nuw i8, ptr %4, i64 8
  store ptr %6, ptr %prev4.i, align 8
  store ptr %check_handles, ptr %3, align 8
  %7 = load ptr, ptr %prev.i5, align 8
  store ptr %7, ptr %prev.i, align 8
  store ptr %3, ptr %7, align 8
  store ptr %3, ptr %prev.i5, align 8
  %check_cb = getelementptr inbounds i8, ptr %3, i64 -8
  %8 = load ptr, ptr %check_cb, align 8
  call void %8(ptr noundef nonnull %add.ptr) #3
  %9 = load ptr, ptr %queue, align 8
  %cmp.i.not = icmp eq ptr %queue, %9
  br i1 %cmp.i.not, label %while.end, label %while.body

while.end:                                        ; preds = %while.body, %entry, %uv__queue_move.exit
  ret void
}